target datalayout = "e-m:e-p270:32:32-p271:32:32-p272:64:64-i64:64-i128:128-f80:128-n8:16:32:64-S128"
target triple = "x86_64-pc-linux-gnu"

%struct._GArray = type { ptr, i32 }
%struct.wtap_dumper = type { ptr, i32, i32, i32, i32, i8, i64, ptr, ptr, ptr, ptr, ptr, ptr, ptr, ptr, ptr, ptr, ptr, ptr, ptr, i32, i32, i32 }

; Function Attrs: nounwind null_pointer_is_valid sspstrong uwtable
define void @wtap_dump_discard_name_resolution(ptr noundef %0) #2 {
  %2 = alloca ptr, align 8
  store ptr %0, ptr %2, align 8
  %3 = load ptr, ptr %2, align 8
  %4 = getelementptr inbounds nuw %struct.wtap_dumper, ptr %3, i32 0, i32 17
  %5 = load ptr, ptr %4, align 8
  %6 = icmp ne ptr %5, null
  br i1 %6, label %7, label %15

7:                                                ; preds = %1
  %8 = load ptr, ptr %2, align 8
  %9 = getelementptr inbounds nuw %struct.wtap_dumper, ptr %8, i32 0, i32 17
  %10 = load ptr, ptr %9, align 8
  %11 = getelementptr inbounds nuw %struct._GArray, ptr %10, i32 0, i32 1
  %12 = load i32, ptr %11, align 8
  %13 = load ptr, ptr %2, align 8
  %14 = getelementptr inbounds nuw %struct.wtap_dumper, ptr %13, i32 0, i32 20
  store i32 %12, ptr %14, align 8
  br label %15

15:                                               ; preds = %7, %1
  ret void
}